((dp1
Vclusterbot.commands.XMLCommandParser
p2
(dp3
S'funcs'
p4
(lp5
sS'classes'
p6
(dp7
S'XMLEventHandler'
p8
(lp9
S'characters'
p10
aS'endDocument'
p11
aS'endElement'
p12
aS'endElementNS'
p13
aS'endPrefixMapping'
p14
aS'ignorableWhitespace'
p15
aS'processingInstruction'
p16
aS'setDocumentLocator'
p17
aS'skippedEntity'
p18
aS'startDocument'
p19
aS'startElementNS'
p20
aS'startPrefixMapping'
p21
asS'CommandBuilder'
p22
(lp23
S'getConstructorParameterAssignments'
p24
aS'getConstructorParameters'
p25
aS'getInstanceVariableAssignments'
p26
asssVclusterbot.EventDrivenShellClusterBot
p27
(dp28
g4
(lp29
sg6
(dp30
S'EventDrivenShellClusterBot'
p31
(lp32
S'bottom_of_help_message'
p33
aS'build_message'
p34
aS'build_reply'
p35
aS'callback_message'
p36
aS'callback_presence'
p37
aS'callback_shell'
p38
aS'cat'
p39
aS'connect'
p40
aS'debug'
p41
aS'echo'
p42
aS'get'
p43
aS'get_sender_username'
p44
aS'getjid'
p45
aS'hello'
p46
aS'help'
p47
aS'holla'
p48
aS'idle_proc'
p49
aS'join_room'
p50
aS'log'
p51
aS'ls'
p52
aS'opensession'
p53
aS'send'
p54
aS'send_message'
p55
aS'send_simple_reply'
p56
aS'send_tune'
p57
aS'serve_forever'
p58
aS'serverinfo'
p59
aS'shutdown'
p60
aS'status_message_changed'
p61
aS'status_type_changed'
p62
aS'top_of_help_message'
p63
aS'unknown_command'
p64
aS'whoami'
p65
asssVclusterbot.ShellClusterBot
p66
(dp67
g4
(lp68
sg6
(dp69
S'ShellClusterBot'
p70
(lp71
g33
aS'broadcast'
p72
ag34
ag35
ag36
ag37
ag39
ag40
ag41
ag42
ag43
ag44
ag45
ag46
ag47
ag48
ag49
ag50
ag51
ag52
ag54
ag55
ag56
ag57
ag58
ag59
ag60
ag61
ag62
ag63
ag64
ag65
asssVclusterbot.tests.EventDrivenShellClusterBotTest
p73
(dp74
g4
(lp75
sg6
(dp76
S'EventDrivenShellClusterBotTest'
p77
(lp78
S'assertAlmostEqual'
p79
aS'assertAlmostEquals'
p80
aS'assertEqual'
p81
aS'assertEquals'
p82
aS'assertFalse'
p83
aS'assertNotAlmostEqual'
p84
aS'assertNotAlmostEquals'
p85
aS'assertNotEqual'
p86
aS'assertNotEquals'
p87
aS'assertRaises'
p88
aS'assertTrue'
p89
aS'assert_'
p90
aS'countTestCases'
p91
ag41
aS'defaultTestResult'
p92
aS'fail'
p93
aS'failIf'
p94
aS'failIfAlmostEqual'
p95
aS'failIfEqual'
p96
aS'failUnless'
p97
aS'failUnlessAlmostEqual'
p98
aS'failUnlessEqual'
p99
aS'failUnlessRaises'
p100
aS'id'
p101
aS'run'
p102
aS'shortDescription'
p103
asssVclusterbot.events.XMLEventParser
p104
(dp105
g4
(lp106
sg6
(dp107
g8
(lp108
g10
ag11
ag12
ag13
ag14
ag15
ag16
ag17
ag18
ag19
ag20
ag21
asssVclusterbot.eventmodules.ExceedingCPUTempEvent2
p109
(dp110
g4
(lp111
sg6
(dp112
S'ExceedingCPUTempEvent2'
p113
(lp114
S'cacheExpired'
p115
aS'getDescription'
p116
aS'getEventMessage'
p117
aS'getName'
p118
aS'getObservers'
p119
aS'isSubscribed'
p120
aS'isTriggered'
p121
aS'isUpdated'
p122
aS'setDefaultMessage'
p123
aS'setDescription'
p124
aS'setEventMessage'
p125
aS'setTriggered'
p126
aS'subscribe'
p127
aS'unsubscribe'
p128
aS'updated'
p129
asssVclusterbot.events.CachedEvent
p130
(dp131
g4
(lp132
sg6
(dp133
S'CachedEvent'
p134
(lp135
g116
ag117
ag118
ag119
ag120
ag121
ag122
ag123
ag124
ag125
ag126
ag127
ag128
ag129
asssVclusterbot.eventmodules.ExceedingCPUTempEvent
p136
(dp137
g4
(lp138
sg6
(dp139
S'ExceedingCPUTempEvent'
p140
(lp141
g115
ag116
ag117
ag118
ag119
ag120
ag121
ag122
ag123
ag124
ag125
ag126
ag127
ag128
ag129
asssVclusterbot.util.string
p142
(dp143
g4
(lp144
sg6
(dp145
ssVclusterbot.tests.XMLParserTest
p146
(dp147
g4
(lp148
sg6
(dp149
S'XMLParserTest'
p150
(lp151
g79
ag80
ag81
ag82
ag83
ag84
ag85
ag86
ag87
ag88
ag89
ag90
ag91
ag41
ag92
ag93
ag94
ag95
ag96
ag97
ag98
ag99
ag100
ag101
ag102
aS'setUp'
p152
ag103
aS'tearDown'
p153
asssVclusterbot.shell.myconsole
p154
(dp155
g4
(lp156
sg6
(dp157
ssVclusterbot.main
p158
(dp159
g4
(lp160
sg6
(dp161
ssVclusterbot.util.timer
p162
(dp163
g4
(lp164
sg6
(dp165
ssVclusterbot.ClusterBot
p166
(dp167
g4
(lp168
sg6
(dp169
S'ClusterBot'
p170
(lp171
g33
ag72
ag34
ag35
ag36
ag40
ag41
ag44
ag47
ag49
ag50
ag51
ag54
ag55
ag56
ag57
ag58
ag60
ag61
ag62
ag63
ag64
asssVclusterbot.events.Event
p172
(dp173
g4
(lp174
sg6
(dp175
ssVclusterbot.util.MyXMLReader
p176
(dp177
g4
(lp178
sg6
(dp179
S'MyXMLReader'
p180
(lp181
g10
ag11
ag12
ag13
ag14
ag15
ag16
ag17
ag18
ag19
ag20
ag21
asssVclusterbot.tests.MyXMLReaderTest
p182
(dp183
g4
(lp184
sg6
(dp185
S'MyXMLReaderTest'
p186
(lp187
g79
ag80
ag81
ag82
ag83
ag84
ag85
ag86
ag87
ag88
ag89
ag90
ag91
ag41
ag92
ag93
ag94
ag95
ag96
ag97
ag98
ag99
ag100
ag101
ag102
ag152
ag103
ag153
asss(dp188
t.